target datalayout = "e-m:e-p270:32:32-p271:32:32-p272:64:64-i64:64-i128:128-f80:128-n8:16:32:64-S128"
target triple = "x86_64-pc-linux-gnu"

%struct.slurmctld_rpc_t = type { i16, ptr, ptr, %struct.slurmctld_lock_t, ptr, i8, i8, i8, i8, i8, i32, i32, i16, i16, i32, i64, %union.pthread_cond_t, %union.pthread_mutex_t, ptr, i16, i64, i16, i16 }
%struct.slurmctld_lock_t = type { i32, i32, i32, i32, i32 }
%union.pthread_cond_t = type { %struct.__pthread_cond_s }
%struct.__pthread_cond_s = type { %union.__atomic_wide_counter, %union.__atomic_wide_counter, [2 x i32], [2 x i32], i32, i32, [2 x i32] }
%union.__atomic_wide_counter = type { i64 }
%union.pthread_mutex_t = type { %struct.__pthread_mutex_s }
%struct.__pthread_mutex_s = type { i32, i32, i32, i32, i32, i16, i16, %struct.__pthread_internal_list }
%struct.__pthread_internal_list = type { ptr, ptr }

@enabled = dso_local global i8 1, align 1
@slurmctld_rpcs = external global [0 x %struct.slurmctld_rpc_t], align 8
@.str.11 = private unnamed_addr constant [29 x i8] c"%s: pthread_mutex_lock(): %m\00", align 1
@__func__.rpc_queue_shutdown = private unnamed_addr constant [19 x i8] c"rpc_queue_shutdown\00", align 1
@.str.12 = private unnamed_addr constant [36 x i8] c"%s:%d %s: pthread_cond_signal(): %m\00", align 1
@.str.13 = private unnamed_addr constant [12 x i8] c"rpc_queue.c\00", align 1
@.str.14 = private unnamed_addr constant [31 x i8] c"%s: pthread_mutex_unlock(): %m\00", align 1
@.str.15 = private unnamed_addr constant [23 x i8] c"%s: pthread_join(): %m\00", align 1

; Function Attrs: nounwind uwtable
define dso_local void @rpc_queue_shutdown() #0 {
  %1 = alloca ptr, align 8
  %2 = alloca i32, align 4
  %3 = alloca i32, align 4
  %4 = alloca i32, align 4
  %5 = alloca ptr, align 8
  %6 = alloca i32, align 4
  %7 = load i8, ptr @enabled, align 1, !range !8, !noundef !9
  %8 = trunc i8 %7 to i1
  br i1 %8, label %10, label %9

9:                                                ; preds = %0
  br label %119

10:                                               ; preds = %0
  store i8 0, ptr @enabled, align 1
  call void @llvm.lifetime.start.p0(i64 8, ptr %1) #7
  store ptr @slurmctld_rpcs, ptr %1, align 8
  br label %11

11:                                               ; preds = %63, %10
  %12 = load ptr, ptr %1, align 8
  %13 = getelementptr inbounds nuw %struct.slurmctld_rpc_t, ptr %12, i32 0, i32 0
  %14 = load i16, ptr %13, align 8
  %15 = icmp ne i16 %14, 0
  br i1 %15, label %17, label %16

16:                                               ; preds = %11
  call void @llvm.lifetime.end.p0(i64 8, ptr %1) #7
  br label %66

17:                                               ; preds = %11
  %18 = load ptr, ptr %1, align 8
  %19 = getelementptr inbounds nuw %struct.slurmctld_rpc_t, ptr %18, i32 0, i32 6
  %20 = load i8, ptr %19, align 1, !range !8, !noundef !9
  %21 = trunc i8 %20 to i1
  br i1 %21, label %23, label %22

22:                                               ; preds = %17
  br label %63

23:                                               ; preds = %17
  br label %24

24:                                               ; preds = %23
  call void @llvm.lifetime.start.p0(i64 4, ptr %2) #7
  %25 = load ptr, ptr %1, align 8
  %26 = getelementptr inbounds nuw %struct.slurmctld_rpc_t, ptr %25, i32 0, i32 17
  %27 = call i32 @pthread_mutex_lock(ptr noundef %26) #7
  store i32 %27, ptr %2, align 4
  %28 = load i32, ptr %2, align 4
  %29 = icmp ne i32 %28, 0
  br i1 %29, label %30, label %33

30:                                               ; preds = %24
  %31 = load i32, ptr %2, align 4
  %32 = call ptr @__errno_location() #8
  store i32 %31, ptr %32, align 4
  call void (ptr, ...) @fatal_abort(ptr noundef @.str.11, ptr noundef @__func__.rpc_queue_shutdown) #9
  unreachable

33:                                               ; preds = %24
  call void @llvm.lifetime.end.p0(i64 4, ptr %2) #7
  br label %34

34:                                               ; preds = %33
  br label %35

35:                                               ; preds = %34
  %36 = load ptr, ptr %1, align 8
  %37 = getelementptr inbounds nuw %struct.slurmctld_rpc_t, ptr %36, i32 0, i32 8
  store i8 1, ptr %37, align 1
  br label %38

38:                                               ; preds = %35
  call void @llvm.lifetime.start.p0(i64 4, ptr %3) #7
  %39 = load ptr, ptr %1, align 8
  %40 = getelementptr inbounds nuw %struct.slurmctld_rpc_t, ptr %39, i32 0, i32 16
  %41 = call i32 @pthread_cond_signal(ptr noundef %40) #7
  store i32 %41, ptr %3, align 4
  %42 = load i32, ptr %3, align 4
  %43 = icmp ne i32 %42, 0
  br i1 %43, label %44, label %48

44:                                               ; preds = %38
  %45 = load i32, ptr %3, align 4
  %46 = call ptr @__errno_location() #8
  store i32 %45, ptr %46, align 4
  %47 = call i32 (ptr, ...) @error(ptr noundef @.str.12, ptr noundef @.str.13, i32 noundef 330, ptr noundef @__func__.rpc_queue_shutdown)
  br label %48

48:                                               ; preds = %44, %38
  call void @llvm.lifetime.end.p0(i64 4, ptr %3) #7
  br label %49

49:                                               ; preds = %48
  br label %50

50:                                               ; preds = %49
  br label %51

51:                                               ; preds = %50
  call void @llvm.lifetime.start.p0(i64 4, ptr %4) #7
  %52 = load ptr, ptr %1, align 8
  %53 = getelementptr inbounds nuw %struct.slurmctld_rpc_t, ptr %52, i32 0, i32 17
  %54 = call i32 @pthread_mutex_unlock(ptr noundef %53) #7
  store i32 %54, ptr %4, align 4
  %55 = load i32, ptr %4, align 4
  %56 = icmp ne i32 %55, 0
  br i1 %56, label %57, label %60

57:                                               ; preds = %51
  %58 = load i32, ptr %4, align 4
  %59 = call ptr @__errno_location() #8
  store i32 %58, ptr %59, align 4
  call void (ptr, ...) @fatal_abort(ptr noundef @.str.14, ptr noundef @__func__.rpc_queue_shutdown) #9
  unreachable

60:                                               ; preds = %51
  call void @llvm.lifetime.end.p0(i64 4, ptr %4) #7
  br label %61

61:                                               ; preds = %60
  br label %62

62:                                               ; preds = %61
  br label %63

63:                                               ; preds = %62, %22
  %64 = load ptr, ptr %1, align 8
  %65 = getelementptr inbounds nuw %struct.slurmctld_rpc_t, ptr %64, i32 1
  store ptr %65, ptr %1, align 8
  br label %11, !llvm.loop !14

66:                                               ; preds = %16
  call void @llvm.lifetime.start.p0(i64 8, ptr %5) #7
  store ptr @slurmctld_rpcs, ptr %5, align 8
  br label %67

67:                                               ; preds = %116, %66
  %68 = load ptr, ptr %5, align 8
  %69 = getelementptr inbounds nuw %struct.slurmctld_rpc_t, ptr %68, i32 0, i32 0
  %70 = load i16, ptr %69, align 8
  %71 = icmp ne i16 %70, 0
  br i1 %71, label %73, label %72

72:                                               ; preds = %67
  call void @llvm.lifetime.end.p0(i64 8, ptr %5) #7
  br label %119

73:                                               ; preds = %67
  %74 = load ptr, ptr %5, align 8
  %75 = getelementptr inbounds nuw %struct.slurmctld_rpc_t, ptr %74, i32 0, i32 6
  %76 = load i8, ptr %75, align 1, !range !8, !noundef !9
  %77 = trunc i8 %76 to i1
  br i1 %77, label %79, label %78

78:                                               ; preds = %73
  br label %116

79:                                               ; preds = %73
  br label %80

80:                                               ; preds = %79
  call void @llvm.lifetime.start.p0(i64 4, ptr %6) #7
  store i32 0, ptr %6, align 4
  %81 = load ptr, ptr %5, align 8
  %82 = getelementptr inbounds nuw %struct.slurmctld_rpc_t, ptr %81, i32 0, i32 15
  %83 = load i64, ptr %82, align 8
  %84 = icmp ne i64 %83, 0
  br i1 %84, label %85, label %92

85:                                               ; preds = %80
  %86 = load ptr, ptr %5, align 8
  %87 = getelementptr inbounds nuw %struct.slurmctld_rpc_t, ptr %86, i32 0, i32 15
  %88 = load i64, ptr %87, align 8
  %89 = call i32 @pthread_join(i64 noundef %88, ptr noundef null)
  store i32 %89, ptr %6, align 4
  %90 = load ptr, ptr %5, align 8
  %91 = getelementptr inbounds nuw %struct.slurmctld_rpc_t, ptr %90, i32 0, i32 15
  store i64 0, ptr %91, align 8
  br label %92

92:                                               ; preds = %85, %80
  %93 = load i32, ptr %6, align 4
  %94 = icmp ne i32 %93, 0
  br i1 %94, label %95, label %99

95:                                               ; preds = %92
  %96 = load i32, ptr %6, align 4
  %97 = call ptr @__errno_location() #8
  store i32 %96, ptr %97, align 4
  %98 = call i32 (ptr, ...) @error(ptr noundef @.str.15, ptr noundef @__func__.rpc_queue_shutdown)
  br label %99

99:                                               ; preds = %95, %92
  call void @llvm.lifetime.end.p0(i64 4, ptr %6) #7
  br label %100

100:                                              ; preds = %99
  br label %101

101:                                              ; preds = %100
  br label %102

102:                                              ; preds = %101
  %103 = load ptr, ptr %5, align 8
  %104 = getelementptr inbounds nuw %struct.slurmctld_rpc_t, ptr %103, i32 0, i32 18
  %105 = load ptr, ptr %104, align 8
  %106 = icmp ne ptr %105, null
  br i1 %106, label %107, label %111

107:                                              ; preds = %102
  %108 = load ptr, ptr %5, align 8
  %109 = getelementptr inbounds nuw %struct.slurmctld_rpc_t, ptr %108, i32 0, i32 18
  %110 = load ptr, ptr %109, align 8
  call void @list_destroy(ptr noundef %110)
  br label %111

111:                                              ; preds = %107, %102
  %112 = load ptr, ptr %5, align 8
  %113 = getelementptr inbounds nuw %struct.slurmctld_rpc_t, ptr %112, i32 0, i32 18
  store ptr null, ptr %113, align 8
  br label %114

114:                                              ; preds = %111
  br label %115

115:                                              ; preds = %114
  br label %116

116:                                              ; preds = %115, %78
  %117 = load ptr, ptr %5, align 8
  %118 = getelementptr inbounds nuw %struct.slurmctld_rpc_t, ptr %117, i32 1
  store ptr %118, ptr %5, align 8
  br label %67, !llvm.loop !15

119:                                              ; preds = %9, %72
  ret void
}