; Function Attrs: nounwind uwtable
define dso_local void @rpc_queue_shutdown() local_unnamed_addr #0 {
  %1 = load i8, ptr @enabled, align 1, !range !8, !noundef !9
  %2 = trunc nuw i8 %1 to i1
  br i1 %2, label %3, label %.loopexit

3:                                                ; preds = %0
  store i8 0, ptr @enabled, align 1
  %4 = load i16, ptr @slurmctld_rpcs, align 8
  %.not41 = icmp eq i16 %4, 0
  br i1 %.not41, label %.loopexit, label %.lr.ph

.preheader:                                       ; preds = %25
  %.pre = load i16, ptr @slurmctld_rpcs, align 8
  %5 = icmp eq i16 %.pre, 0
  br i1 %5, label %.loopexit, label %.lr.ph45

.lr.ph:                                           ; preds = %3, %25
  %.02442 = phi ptr [ %26, %25 ], [ @slurmctld_rpcs, %3 ]
  %6 = getelementptr inbounds nuw i8, ptr %.02442, i64 57
  %7 = load i8, ptr %6, align 1, !range !8, !noundef !9
  %8 = trunc nuw i8 %7 to i1
  br i1 %8, label %9, label %25

9:                                                ; preds = %.lr.ph
  %10 = getelementptr inbounds nuw i8, ptr %.02442, i64 136
  %11 = tail call i32 @pthread_mutex_lock(ptr noundef nonnull %10) #9
  %.not34 = icmp eq i32 %11, 0
  br i1 %.not34, label %14, label %12

12:                                               ; preds = %9
  %13 = tail call ptr @__errno_location() #11
  store i32 %11, ptr %13, align 4
  tail call void (ptr, ...) @fatal_abort(ptr noundef nonnull @.str.11, ptr noundef nonnull @__func__.rpc_queue_shutdown) #10
  unreachable

14:                                               ; preds = %9
  %15 = getelementptr inbounds nuw i8, ptr %.02442, i64 59
  store i8 1, ptr %15, align 1
  %16 = getelementptr inbounds nuw i8, ptr %.02442, i64 88
  %17 = tail call i32 @pthread_cond_signal(ptr noundef nonnull %16) #9
  %.not35 = icmp eq i32 %17, 0
  br i1 %.not35, label %21, label %18

18:                                               ; preds = %14
  %19 = tail call ptr @__errno_location() #11
  store i32 %17, ptr %19, align 4
  %20 = tail call i32 (ptr, ...) @error(ptr noundef nonnull @.str.12, ptr noundef nonnull @.str.13, i32 noundef 330, ptr noundef nonnull @__func__.rpc_queue_shutdown) #9
  br label %21

21:                                               ; preds = %18, %14
  %22 = tail call i32 @pthread_mutex_unlock(ptr noundef nonnull %10) #9
  %.not36 = icmp eq i32 %22, 0
  br i1 %.not36, label %25, label %23

23:                                               ; preds = %21
  %24 = tail call ptr @__errno_location() #11
  store i32 %22, ptr %24, align 4
  tail call void (ptr, ...) @fatal_abort(ptr noundef nonnull @.str.14, ptr noundef nonnull @__func__.rpc_queue_shutdown) #10
  unreachable

25:                                               ; preds = %21, %.lr.ph
  %26 = getelementptr inbounds nuw i8, ptr %.02442, i64 208
  %27 = load i16, ptr %26, align 8
  %.not = icmp eq i16 %27, 0
  br i1 %.not, label %.preheader, label %.lr.ph, !llvm.loop !14

.lr.ph45:                                         ; preds = %.preheader, %43
  %.02344 = phi ptr [ %44, %43 ], [ @slurmctld_rpcs, %.preheader ]
  %28 = getelementptr inbounds nuw i8, ptr %.02344, i64 57
  %29 = load i8, ptr %28, align 1, !range !8, !noundef !9
  %30 = trunc nuw i8 %29 to i1
  br i1 %30, label %31, label %43

31:                                               ; preds = %.lr.ph45
  %32 = getelementptr inbounds nuw i8, ptr %.02344, i64 80
  %33 = load i64, ptr %32, align 8
  %.not31 = icmp eq i64 %33, 0
  br i1 %.not31, label %.thread, label %34

34:                                               ; preds = %31
  %35 = tail call i32 @pthread_join(i64 noundef %33, ptr noundef null) #9
  store i64 0, ptr %32, align 8
  %.not32 = icmp eq i32 %35, 0
  br i1 %.not32, label %.thread, label %36

36:                                               ; preds = %34
  %37 = tail call ptr @__errno_location() #11
  store i32 %35, ptr %37, align 4
  %38 = tail call i32 (ptr, ...) @error(ptr noundef nonnull @.str.15, ptr noundef nonnull @__func__.rpc_queue_shutdown) #9
  br label %.thread

.thread:                                          ; preds = %31, %36, %34
  %39 = getelementptr inbounds nuw i8, ptr %.02344, i64 176
  %40 = load ptr, ptr %39, align 8
  %.not33 = icmp eq ptr %40, null
  br i1 %.not33, label %42, label %41

41:                                               ; preds = %.thread
  tail call void @list_destroy(ptr noundef nonnull %40) #9
  br label %42

42:                                               ; preds = %41, %.thread
  store ptr null, ptr %39, align 8
  br label %43

43:                                               ; preds = %.lr.ph45, %42
  %44 = getelementptr inbounds nuw i8, ptr %.02344, i64 208
  %45 = load i16, ptr %44, align 8
  %.not30 = icmp eq i16 %45, 0
  br i1 %.not30, label %.loopexit, label %.lr.ph45, !llvm.loop !15

.loopexit:                                        ; preds = %43, %3, %.preheader, %0
  ret void
}